target datalayout = "e-m:e-p270:32:32-p271:32:32-p272:64:64-i64:64-i128:128-f80:128-n8:16:32:64-S128"
target triple = "x86_64-pc-linux-gnu"

%struct.x509_st = type { %struct.x509_cinf_st, %struct.X509_algor_st, %struct.asn1_string_st, %struct.x509_sig_info_st, %struct.CRYPTO_REF_COUNT, %struct.crypto_ex_data_st, i64, i64, i32, i32, i32, i32, ptr, ptr, ptr, ptr, ptr, ptr, ptr, ptr, [20 x i8], ptr, ptr, i32, ptr, ptr, ptr }
%struct.x509_cinf_st = type { ptr, %struct.asn1_string_st, %struct.X509_algor_st, ptr, %struct.X509_val_st, ptr, ptr, ptr, ptr, ptr, %struct.ASN1_ENCODING_st }
%struct.X509_val_st = type { ptr, ptr }
%struct.ASN1_ENCODING_st = type { ptr, i64, i32 }
%struct.X509_algor_st = type { ptr, ptr }
%struct.asn1_string_st = type { i32, i32, ptr, i64 }
%struct.x509_sig_info_st = type { i32, i32, i32, i32 }
%struct.CRYPTO_REF_COUNT = type { i32 }
%struct.crypto_ex_data_st = type { ptr, ptr }
%struct.x509_cert_aux_st = type { ptr, ptr, ptr, ptr, ptr }

; Function Attrs: nounwind uwtable
define ptr @X509_keyid_get0(ptr noundef %0, ptr noundef %1) #0 {
  %3 = alloca ptr, align 8
  %4 = alloca ptr, align 8
  %5 = alloca ptr, align 8
  store ptr %0, ptr %4, align 8, !tbaa !14
  store ptr %1, ptr %5, align 8, !tbaa !50
  %6 = load ptr, ptr %4, align 8, !tbaa !14
  %7 = getelementptr inbounds nuw %struct.x509_st, ptr %6, i32 0, i32 21
  %8 = load ptr, ptr %7, align 8, !tbaa !16
  %9 = icmp ne ptr %8, null
  br i1 %9, label %10, label %17

10:                                               ; preds = %2
  %11 = load ptr, ptr %4, align 8, !tbaa !14
  %12 = getelementptr inbounds nuw %struct.x509_st, ptr %11, i32 0, i32 21
  %13 = load ptr, ptr %12, align 8, !tbaa !16
  %14 = getelementptr inbounds nuw %struct.x509_cert_aux_st, ptr %13, i32 0, i32 3
  %15 = load ptr, ptr %14, align 8, !tbaa !49
  %16 = icmp ne ptr %15, null
  br i1 %16, label %18, label %17

17:                                               ; preds = %10, %2
  store ptr null, ptr %3, align 8
  br label %38

18:                                               ; preds = %10
  %19 = load ptr, ptr %5, align 8, !tbaa !50
  %20 = icmp ne ptr %19, null
  br i1 %20, label %21, label %30

21:                                               ; preds = %18
  %22 = load ptr, ptr %4, align 8, !tbaa !14
  %23 = getelementptr inbounds nuw %struct.x509_st, ptr %22, i32 0, i32 21
  %24 = load ptr, ptr %23, align 8, !tbaa !16
  %25 = getelementptr inbounds nuw %struct.x509_cert_aux_st, ptr %24, i32 0, i32 3
  %26 = load ptr, ptr %25, align 8, !tbaa !49
  %27 = getelementptr inbounds nuw %struct.asn1_string_st, ptr %26, i32 0, i32 0
  %28 = load i32, ptr %27, align 8, !tbaa !52
  %29 = load ptr, ptr %5, align 8, !tbaa !50
  store i32 %28, ptr %29, align 4, !tbaa !44
  br label %30

30:                                               ; preds = %21, %18
  %31 = load ptr, ptr %4, align 8, !tbaa !14
  %32 = getelementptr inbounds nuw %struct.x509_st, ptr %31, i32 0, i32 21
  %33 = load ptr, ptr %32, align 8, !tbaa !16
  %34 = getelementptr inbounds nuw %struct.x509_cert_aux_st, ptr %33, i32 0, i32 3
  %35 = load ptr, ptr %34, align 8, !tbaa !49
  %36 = getelementptr inbounds nuw %struct.asn1_string_st, ptr %35, i32 0, i32 2
  %37 = load ptr, ptr %36, align 8, !tbaa !53
  store ptr %37, ptr %3, align 8
  br label %38

38:                                               ; preds = %30, %17
  %39 = load ptr, ptr %3, align 8
  ret ptr %39
}